target datalayout = "e-m:e-p270:32:32-p271:32:32-p272:64:64-i64:64-i128:128-f80:128-n8:16:32:64-S128"
target triple = "x86_64-pc-linux-gnu"

%"class.VrmlTranslator::Parser" = type { i32, ptr, i32, i32, ptr, ptr, ptr, ptr, ptr, %"class.std::map", %"class.std::set", %"class.std::set" }
%"class.std::map" = type { %"class.std::_Rb_tree" }
%"class.std::_Rb_tree" = type { %"struct.std::_Rb_tree<QString, std::pair<const QString, QString>, std::_Select1st<std::pair<const QString, QString>>, std::less<QString>>::_Rb_tree_impl" }
%"struct.std::_Rb_tree<QString, std::pair<const QString, QString>, std::_Select1st<std::pair<const QString, QString>>, std::less<QString>>::_Rb_tree_impl" = type { %"struct.std::_Rb_tree_key_compare", %"struct.std::_Rb_tree_header" }
%"struct.std::_Rb_tree_key_compare" = type { %"struct.std::less" }
%"struct.std::less" = type { i8 }
%"struct.std::_Rb_tree_header" = type { %"struct.std::_Rb_tree_node_base", i64 }
%"struct.std::_Rb_tree_node_base" = type { i32, ptr, ptr, ptr }
%"class.std::set" = type { %"class.std::_Rb_tree.0" }
%"class.std::_Rb_tree.0" = type { %"struct.std::_Rb_tree<QString, QString, std::_Identity<QString>, std::less<QString>>::_Rb_tree_impl" }
%"struct.std::_Rb_tree<QString, QString, std::_Identity<QString>, std::less<QString>>::_Rb_tree_impl" = type { %"struct.std::_Rb_tree_key_compare", %"struct.std::_Rb_tree_header" }
%"class.VrmlTranslator::Token" = type { i32, i32, i32, i32, ptr, ptr }
%"class.VrmlTranslator::Errors" = type { i32, ptr }

@.str.301 = private unnamed_addr constant [24 x i32] [i32 45, i32 45, i32 32, i32 108, i32 105, i32 110, i32 101, i32 32, i32 37, i32 100, i32 32, i32 99, i32 111, i32 108, i32 32, i32 37, i32 100, i32 58, i32 32, i32 37, i32 108, i32 115, i32 10, i32 0], align 4

; Function Attrs: mustprogress uwtable
define void @_ZN14VrmlTranslator6Errors5ErrorEiiPKw(ptr noundef nonnull align 8 dereferenceable(16) %0, i32 noundef %1, i32 noundef %2, ptr noundef %3) #0 align 2 {
  %5 = alloca ptr, align 8
  %6 = alloca i32, align 4
  %7 = alloca i32, align 4
  %8 = alloca ptr, align 8
  %9 = alloca [100 x i32], align 16
  store ptr %0, ptr %5, align 8
  store i32 %1, ptr %6, align 4
  store i32 %2, ptr %7, align 4
  store ptr %3, ptr %8, align 8
  %10 = load ptr, ptr %5, align 8
  %11 = getelementptr inbounds [100 x i32], ptr %9, i64 0, i64 0
  %12 = load i32, ptr %6, align 4
  %13 = load i32, ptr %7, align 4
  %14 = load ptr, ptr %8, align 8
  %15 = call i32 (ptr, i64, ptr, ...) @swprintf(ptr noundef %11, i64 noundef 100, ptr noundef @.str.301, i32 noundef %12, i32 noundef %13, ptr noundef %14) #10
  %16 = getelementptr inbounds %"class.VrmlTranslator::Errors", ptr %10, i32 0, i32 1
  %17 = load ptr, ptr %16, align 8
  %18 = getelementptr inbounds [100 x i32], ptr %9, i64 0, i64 0
  %19 = call noundef ptr @_Z25coco_string_create_appendPKwS0_(ptr noundef %17, ptr noundef %18)
  %20 = getelementptr inbounds %"class.VrmlTranslator::Errors", ptr %10, i32 0, i32 1
  store ptr %19, ptr %20, align 8
  %21 = getelementptr inbounds %"class.VrmlTranslator::Errors", ptr %10, i32 0, i32 0
  %22 = load i32, ptr %21, align 8
  %23 = add nsw i32 %22, 1
  store i32 %23, ptr %21, align 8
  ret void
}

; Function Attrs: mustprogress uwtable
define void @_ZN14VrmlTranslator6Parser6SemErrEPKw(ptr noundef nonnull align 8 dereferenceable(208) %0, ptr noundef %1) #0 align 2 {
  %3 = alloca ptr, align 8
  %4 = alloca ptr, align 8
  store ptr %0, ptr %3, align 8
  store ptr %1, ptr %4, align 8
  %5 = load ptr, ptr %3, align 8
  %6 = getelementptr inbounds %"class.VrmlTranslator::Parser", ptr %5, i32 0, i32 2
  %7 = load i32, ptr %6, align 8
  %8 = getelementptr inbounds %"class.VrmlTranslator::Parser", ptr %5, i32 0, i32 3
  %9 = load i32, ptr %8, align 4
  %10 = icmp sge i32 %7, %9
  br i1 %10, label %11, label %23

11:                                               ; preds = %2
  %12 = getelementptr inbounds %"class.VrmlTranslator::Parser", ptr %5, i32 0, i32 5
  %13 = load ptr, ptr %12, align 8
  %14 = getelementptr inbounds %"class.VrmlTranslator::Parser", ptr %5, i32 0, i32 6
  %15 = load ptr, ptr %14, align 8
  %16 = getelementptr inbounds %"class.VrmlTranslator::Token", ptr %15, i32 0, i32 3
  %17 = load i32, ptr %16, align 4
  %18 = getelementptr inbounds %"class.VrmlTranslator::Parser", ptr %5, i32 0, i32 6
  %19 = load ptr, ptr %18, align 8
  %20 = getelementptr inbounds %"class.VrmlTranslator::Token", ptr %19, i32 0, i32 2
  %21 = load i32, ptr %20, align 8
  %22 = load ptr, ptr %4, align 8
  call void @_ZN14VrmlTranslator6Errors5ErrorEiiPKw(ptr noundef nonnull align 8 dereferenceable(16) %13, i32 noundef %17, i32 noundef %21, ptr noundef %22)
  br label %23

23:                                               ; preds = %11, %2
  %24 = getelementptr inbounds %"class.VrmlTranslator::Parser", ptr %5, i32 0, i32 2
  store i32 0, ptr %24, align 8
  ret void
}