; Function Attrs: mustprogress uwtable
define void @_ZN14VrmlTranslator6Parser6SemErrEPKw(ptr noundef nonnull align 8 captures(none) dereferenceable(208) %0, ptr noundef %1) local_unnamed_addr #0 align 2 {
  %3 = alloca [100 x i32], align 16
  %4 = getelementptr inbounds nuw i8, ptr %0, i64 16
  %5 = load i32, ptr %4, align 8
  %6 = getelementptr inbounds nuw i8, ptr %0, i64 20
  %7 = load i32, ptr %6, align 4
  %.not = icmp slt i32 %5, %7
  br i1 %.not, label %23, label %8

8:                                                ; preds = %2
  %9 = getelementptr inbounds nuw i8, ptr %0, i64 32
  %10 = load ptr, ptr %9, align 8
  %11 = getelementptr inbounds nuw i8, ptr %0, i64 40
  %12 = load ptr, ptr %11, align 8
  %13 = getelementptr inbounds nuw i8, ptr %12, i64 12
  %14 = load i32, ptr %13, align 4
  %15 = getelementptr inbounds nuw i8, ptr %12, i64 8
  %16 = load i32, ptr %15, align 8
  call void @llvm.lifetime.start.p0(i64 400, ptr nonnull %3)
  %17 = call i32 (ptr, i64, ptr, ...) @swprintf(ptr noundef nonnull %3, i64 noundef 100, ptr noundef nonnull @.str.301, i32 noundef %14, i32 noundef %16, ptr noundef %1) #14
  %18 = getelementptr inbounds nuw i8, ptr %10, i64 8
  %19 = load ptr, ptr %18, align 8
  %20 = call noundef ptr @_Z25coco_string_create_appendPKwS0_(ptr noundef %19, ptr noundef nonnull %3)
  store ptr %20, ptr %18, align 8
  %21 = load i32, ptr %10, align 8
  %22 = add nsw i32 %21, 1
  store i32 %22, ptr %10, align 8
  call void @llvm.lifetime.end.p0(i64 400, ptr nonnull %3)
  br label %23

23:                                               ; preds = %8, %2
  store i32 0, ptr %4, align 8
  ret void
}